; ModuleID = 'source-C-CXX/11/1176.c'
source_filename = "source-C-CXX/11/1176.c"
target datalayout = "e-m:e-p270:32:32-p271:32:32-p272:64:64-i64:64-f80:128-n8:16:32:64-S128"
target triple = "x86_64-pc-linux-gnu"

@.str = private unnamed_addr constant [3 x i8] c"%d\00", align 1
@.str.1 = private unnamed_addr constant [4 x i8] c"%d\0A\00", align 1

; Function Attrs: nofree nounwind sspstrong uwtable
define dso_local i32 @main() local_unnamed_addr #0 {
  %1 = alloca [16 x i32], align 16
  %2 = bitcast [16 x i32]* %1 to i8*
  call void @llvm.lifetime.start.p0i8(i64 64, i8* nonnull %2) #5
  %3 = getelementptr inbounds [16 x i32], [16 x i32]* %1, i64 0, i64 0
  %4 = call i32 (i8*, ...) @__isoc99_scanf(i8* getelementptr inbounds ([3 x i8], [3 x i8]* @.str, i64 0, i64 0), i32* nonnull %3)
  %5 = load i32, i32* %3, align 16, !tbaa !5
  %6 = icmp eq i32 %5, -1
  br i1 %6, label %100, label %7

7:                                                ; preds = %0, %14
  %8 = phi i64 [ %15, %14 ], [ 1, %0 ]
  %9 = getelementptr inbounds [16 x i32], [16 x i32]* %1, i64 0, i64 %8
  %10 = call i32 (i8*, ...) @__isoc99_scanf(i8* getelementptr inbounds ([3 x i8], [3 x i8]* @.str, i64 0, i64 0), i32* nonnull %9)
  %11 = load i32, i32* %9, align 4, !tbaa !5
  %12 = icmp eq i32 %11, 0
  %13 = add nuw i64 %8, 1
  br i1 %12, label %16, label %14

14:                                               ; preds = %7, %95
  %15 = phi i64 [ %13, %7 ], [ 1, %95 ]
  br label %7, !llvm.loop !9

16:                                               ; preds = %7
  %17 = trunc i64 %8 to i32
  %18 = and i64 %8, 4294967295
  %19 = call i32 @llvm.umax.i32(i32 %17, i32 1)
  %20 = zext i32 %19 to i64
  br label %25

21:                                               ; preds = %82, %75, %25
  %22 = phi i32 [ %28, %25 ], [ %77, %75 ], [ %92, %82 ]
  %23 = add nuw nsw i64 %27, 1
  %24 = icmp eq i64 %31, %20
  br i1 %24, label %95, label %25, !llvm.loop !11

25:                                               ; preds = %16, %21
  %26 = phi i64 [ 0, %16 ], [ %31, %21 ]
  %27 = phi i64 [ 1, %16 ], [ %23, %21 ]
  %28 = phi i32 [ 0, %16 ], [ %22, %21 ]
  %29 = xor i64 %26, -1
  %30 = add nsw i64 %18, %29
  %31 = add nuw nsw i64 %26, 1
  %32 = icmp ult i64 %31, %18
  br i1 %32, label %33, label %21

33:                                               ; preds = %25
  %34 = getelementptr inbounds [16 x i32], [16 x i32]* %1, i64 0, i64 %26
  %35 = load i32, i32* %34, align 4, !tbaa !5
  %36 = shl nsw i32 %35, 1
  %37 = icmp ult i64 %30, 8
  br i1 %37, label %79, label %38

38:                                               ; preds = %33
  %39 = and i64 %30, -8
  %40 = add i64 %27, %39
  %41 = insertelement <4 x i32> <i32 poison, i32 0, i32 0, i32 0>, i32 %28, i32 0
  %42 = insertelement <4 x i32> poison, i32 %35, i32 0
  %43 = shufflevector <4 x i32> %42, <4 x i32> poison, <4 x i32> zeroinitializer
  %44 = insertelement <4 x i32> poison, i32 %35, i32 0
  %45 = shufflevector <4 x i32> %44, <4 x i32> poison, <4 x i32> zeroinitializer
  %46 = insertelement <4 x i32> poison, i32 %36, i32 0
  %47 = shufflevector <4 x i32> %46, <4 x i32> poison, <4 x i32> zeroinitializer
  %48 = insertelement <4 x i32> poison, i32 %36, i32 0
  %49 = shufflevector <4 x i32> %48, <4 x i32> poison, <4 x i32> zeroinitializer
  br label %50

50:                                               ; preds = %50, %38
  %51 = phi i64 [ 0, %38 ], [ %73, %50 ]
  %52 = phi <4 x i32> [ %41, %38 ], [ %71, %50 ]
  %53 = phi <4 x i32> [ zeroinitializer, %38 ], [ %72, %50 ]
  %54 = add i64 %27, %51
  %55 = getelementptr inbounds [16 x i32], [16 x i32]* %1, i64 0, i64 %54
  %56 = bitcast i32* %55 to <4 x i32>*
  %57 = load <4 x i32>, <4 x i32>* %56, align 4, !tbaa !5
  %58 = getelementptr inbounds i32, i32* %55, i64 4
  %59 = bitcast i32* %58 to <4 x i32>*
  %60 = load <4 x i32>, <4 x i32>* %59, align 4, !tbaa !5
  %61 = shl nsw <4 x i32> %57, <i32 1, i32 1, i32 1, i32 1>
  %62 = shl nsw <4 x i32> %60, <i32 1, i32 1, i32 1, i32 1>
  %63 = icmp eq <4 x i32> %43, %61
  %64 = icmp eq <4 x i32> %45, %62
  %65 = icmp eq <4 x i32> %57, %47
  %66 = icmp eq <4 x i32> %60, %49
  %67 = select <4 x i1> %63, <4 x i1> <i1 true, i1 true, i1 true, i1 true>, <4 x i1> %65
  %68 = select <4 x i1> %64, <4 x i1> <i1 true, i1 true, i1 true, i1 true>, <4 x i1> %66
  %69 = zext <4 x i1> %67 to <4 x i32>
  %70 = zext <4 x i1> %68 to <4 x i32>
  %71 = add <4 x i32> %52, %69
  %72 = add <4 x i32> %53, %70
  %73 = add nuw i64 %51, 8
  %74 = icmp eq i64 %73, %39
  br i1 %74, label %75, label %50, !llvm.loop !12

75:                                               ; preds = %50
  %76 = add <4 x i32> %72, %71
  %77 = call i32 @llvm.vector.reduce.add.v4i32(<4 x i32> %76)
  %78 = icmp eq i64 %30, %39
  br i1 %78, label %21, label %79

79:                                               ; preds = %33, %75
  %80 = phi i64 [ %27, %33 ], [ %40, %75 ]
  %81 = phi i32 [ %28, %33 ], [ %77, %75 ]
  br label %82

82:                                               ; preds = %79, %82
  %83 = phi i64 [ %93, %82 ], [ %80, %79 ]
  %84 = phi i32 [ %92, %82 ], [ %81, %79 ]
  %85 = getelementptr inbounds [16 x i32], [16 x i32]* %1, i64 0, i64 %83
  %86 = load i32, i32* %85, align 4, !tbaa !5
  %87 = shl nsw i32 %86, 1
  %88 = icmp eq i32 %35, %87
  %89 = icmp eq i32 %86, %36
  %90 = select i1 %88, i1 true, i1 %89
  %91 = zext i1 %90 to i32
  %92 = add nsw i32 %84, %91
  %93 = add nuw nsw i64 %83, 1
  %94 = icmp eq i64 %93, %18
  br i1 %94, label %21, label %82, !llvm.loop !14

95:                                               ; preds = %21
  %96 = call i32 (i8*, ...) @printf(i8* nonnull dereferenceable(1) getelementptr inbounds ([4 x i8], [4 x i8]* @.str.1, i64 0, i64 0), i32 %22)
  %97 = call i32 (i8*, ...) @__isoc99_scanf(i8* getelementptr inbounds ([3 x i8], [3 x i8]* @.str, i64 0, i64 0), i32* nonnull %3)
  %98 = load i32, i32* %3, align 16, !tbaa !5
  %99 = icmp eq i32 %98, -1
  br i1 %99, label %100, label %14

100:                                              ; preds = %95, %0
  call void @llvm.lifetime.end.p0i8(i64 64, i8* nonnull %2) #5
  ret i32 0
}

; Function Attrs: argmemonly mustprogress nofree nosync nounwind willreturn
declare void @llvm.lifetime.start.p0i8(i64 immarg, i8* nocapture) #1

; Function Attrs: nofree nounwind
declare noundef i32 @__isoc99_scanf(i8* nocapture noundef readonly, ...) local_unnamed_addr #2

; Function Attrs: nofree nounwind
declare noundef i32 @printf(i8* nocapture noundef readonly, ...) local_unnamed_addr #2

; Function Attrs: argmemonly mustprogress nofree nosync nounwind willreturn
declare void @llvm.lifetime.end.p0i8(i64 immarg, i8* nocapture) #1

; Function Attrs: nofree nosync nounwind readnone speculatable willreturn
declare i32 @llvm.umax.i32(i32, i32) #3

; Function Attrs: nofree nosync nounwind readnone willreturn
declare i32 @llvm.vector.reduce.add.v4i32(<4 x i32>) #4


!llvm.module.flags = !{!0, !1, !2, !3}
!llvm.ident = !{!4}

!0 = !{i32 1, !"wchar_size", i32 4}
!1 = !{i32 7, !"PIC Level", i32 2}
!2 = !{i32 7, !"PIE Level", i32 2}
!3 = !{i32 7, !"uwtable", i32 1}
!4 = !{!"clang version 13.0.0"}
!5 = !{!6, !6, i64 0}
!6 = !{!"int", !7, i64 0}
!7 = !{!"omnipotent char", !8, i64 0}
!8 = !{!"Simple C/C++ TBAA"}
!9 = distinct !{!9, !10}
!10 = !{!"llvm.loop.mustprogress"}
!11 = distinct !{!11, !10}
!12 = distinct !{!12, !10, !13}
!13 = !{!"llvm.loop.isvectorized", i32 1}
!14 = distinct !{!14, !10, !15, !13}
!15 = !{!"llvm.loop.unroll.runtime.disable"}
